; Function Attrs: mustprogress uwtable
define noundef zeroext i1 @_ZN7rocksdb10GhostCache5AdmitERKNS_5SliceE(ptr noundef nonnull readonly align 8 captures(none) dereferenceable(16) %0, ptr noundef nonnull align 8 dereferenceable(16) %1) local_unnamed_addr #4 align 2 personality ptr @__gxx_personality_v0 {
  %3 = alloca %"class.rocksdb::Status", align 8
  %4 = alloca %"class.rocksdb::Slice", align 8
  %5 = load ptr, ptr %0, align 8, !tbaa !4
  %6 = load ptr, ptr %5, align 8, !tbaa !16
  %7 = getelementptr inbounds nuw i8, ptr %6, i64 168
  %8 = load ptr, ptr %7, align 8
  %9 = tail call noundef ptr %8(ptr noundef nonnull align 8 dereferenceable(80) %5, ptr noundef nonnull align 8 dereferenceable(16) %1, ptr noundef null, ptr noundef null, i32 noundef 1, ptr noundef null)
  %.not = icmp ne ptr %9, null
  br i1 %.not, label %10, label %16

10:                                               ; preds = %2
  %11 = load ptr, ptr %0, align 8, !tbaa !4
  %12 = load ptr, ptr %11, align 8, !tbaa !16
  %13 = getelementptr inbounds nuw i8, ptr %12, i64 184
  %14 = load ptr, ptr %13, align 8
  %15 = tail call noundef zeroext i1 %14(ptr noundef nonnull align 8 dereferenceable(80) %11, ptr noundef nonnull %9, i1 noundef zeroext false)
  br label %26

16:                                               ; preds = %2
  call void @llvm.lifetime.start.p0(i64 16, ptr nonnull %3) #25
  %17 = load ptr, ptr %0, align 8, !tbaa !4
  %18 = getelementptr inbounds nuw i8, ptr %1, i64 8
  %19 = load i64, ptr %18, align 8, !tbaa !18
  call void @llvm.lifetime.start.p0(i64 16, ptr nonnull %4) #25
  store ptr @.str.7, ptr %4, align 8, !tbaa !22
  %20 = getelementptr inbounds nuw i8, ptr %4, i64 8
  store i64 0, ptr %20, align 8, !tbaa !18
  %21 = load ptr, ptr %17, align 8, !tbaa !16
  %22 = getelementptr inbounds nuw i8, ptr %21, i64 152
  %23 = load ptr, ptr %22, align 8
  call void %23(ptr dead_on_unwind nonnull writable sret(%"class.rocksdb::Status") align 8 %3, ptr noundef nonnull align 8 dereferenceable(80) %17, ptr noundef nonnull align 8 dereferenceable(16) %1, ptr noundef null, ptr noundef nonnull @_ZN7rocksdb20kNoopCacheItemHelperE, i64 noundef %19, ptr noundef null, i32 noundef 1, ptr noundef nonnull align 8 dereferenceable(16) %4, i8 noundef zeroext 0)
  call void @llvm.lifetime.end.p0(i64 16, ptr nonnull %4) #25
  %24 = getelementptr inbounds nuw i8, ptr %3, i64 8
  %25 = load ptr, ptr %24, align 8, !tbaa !23
  %.not.i.i = icmp eq ptr %25, null
  br i1 %.not.i.i, label %_ZN7rocksdb6StatusD2Ev.exit, label %_ZNKSt14default_deleteIA_KcEclIS0_EENSt9enable_ifIXsr14is_convertibleIPA_T_PS1_EE5valueEvE4typeEPS5_.exit.i.i

_ZNKSt14default_deleteIA_KcEclIS0_EENSt9enable_ifIXsr14is_convertibleIPA_T_PS1_EE5valueEvE4typeEPS5_.exit.i.i: ; preds = %16
  call void @_ZdaPv(ptr noundef nonnull %25) #26
  br label %_ZN7rocksdb6StatusD2Ev.exit

_ZN7rocksdb6StatusD2Ev.exit:                      ; preds = %16, %_ZNKSt14default_deleteIA_KcEclIS0_EENSt9enable_ifIXsr14is_convertibleIPA_T_PS1_EE5valueEvE4typeEPS5_.exit.i.i
  call void @llvm.lifetime.end.p0(i64 16, ptr nonnull %3) #25
  br label %26

26:                                               ; preds = %_ZN7rocksdb6StatusD2Ev.exit, %10
  ret i1 %.not
}